target datalayout = "e-m:e-p270:32:32-p271:32:32-p272:64:64-i64:64-i128:128-f80:128-n8:16:32:64-S128"
target triple = "x86_64-pc-linux-gnu"

@.str = private unnamed_addr constant [32 x i8] c"../openssl/crypto/x509/v3_utl.c\00", align 1
@.str.15 = private unnamed_addr constant [12 x i8] c"%d.%d.%d.%d\00", align 1
@.str.16 = private unnamed_addr constant [4 x i8] c"%X:\00", align 1
@.str.17 = private unnamed_addr constant [3 x i8] c"%X\00", align 1
@.str.18 = private unnamed_addr constant [20 x i8] c"<invalid length=%d>\00", align 1

; Function Attrs: nounwind uwtable
define ptr @ossl_ipaddr_to_asc(ptr noundef %0, i32 noundef %1) #0 {
  %3 = alloca ptr, align 8
  %4 = alloca i32, align 4
  %5 = alloca [40 x i8], align 16
  %6 = alloca ptr, align 8
  %7 = alloca i32, align 4
  %8 = alloca i32, align 4
  %9 = alloca i32, align 4
  %10 = alloca ptr, align 8
  store ptr %0, ptr %3, align 8, !tbaa !3
  store i32 %1, ptr %4, align 4, !tbaa !15
  call void @llvm.lifetime.start.p0(i64 40, ptr %5) #8
  call void @llvm.lifetime.start.p0(i64 8, ptr %6) #8
  call void @llvm.lifetime.start.p0(i64 4, ptr %7) #8
  store i32 0, ptr %7, align 4, !tbaa !15
  call void @llvm.lifetime.start.p0(i64 4, ptr %8) #8
  store i32 0, ptr %8, align 4, !tbaa !15
  call void @llvm.lifetime.start.p0(i64 4, ptr %9) #8
  store i32 0, ptr %9, align 4, !tbaa !15
  %11 = load i32, ptr %4, align 4, !tbaa !15
  switch i32 %11, label %72 [
    i32 4, label %12
    i32 16, label %31
  ]

12:                                               ; preds = %2
  %13 = getelementptr inbounds [40 x i8], ptr %5, i64 0, i64 0
  %14 = load ptr, ptr %3, align 8, !tbaa !3
  %15 = getelementptr inbounds i8, ptr %14, i64 0
  %16 = load i8, ptr %15, align 1, !tbaa !27
  %17 = zext i8 %16 to i32
  %18 = load ptr, ptr %3, align 8, !tbaa !3
  %19 = getelementptr inbounds i8, ptr %18, i64 1
  %20 = load i8, ptr %19, align 1, !tbaa !27
  %21 = zext i8 %20 to i32
  %22 = load ptr, ptr %3, align 8, !tbaa !3
  %23 = getelementptr inbounds i8, ptr %22, i64 2
  %24 = load i8, ptr %23, align 1, !tbaa !27
  %25 = zext i8 %24 to i32
  %26 = load ptr, ptr %3, align 8, !tbaa !3
  %27 = getelementptr inbounds i8, ptr %26, i64 3
  %28 = load i8, ptr %27, align 1, !tbaa !27
  %29 = zext i8 %28 to i32
  %30 = call i32 (ptr, i64, ptr, ...) @BIO_snprintf(ptr noundef %13, i64 noundef 40, ptr noundef @.str.15, i32 noundef %17, i32 noundef %21, i32 noundef %25, i32 noundef %29)
  br label %76

31:                                               ; preds = %2
  %32 = getelementptr inbounds [40 x i8], ptr %5, i64 0, i64 0
  store ptr %32, ptr %6, align 8, !tbaa !3
  store i32 8, ptr %7, align 4, !tbaa !15
  store i32 40, ptr %8, align 4, !tbaa !15
  br label %33

33:                                               ; preds = %63, %31
  %34 = load i32, ptr %7, align 4, !tbaa !15
  %35 = add nsw i32 %34, -1
  store i32 %35, ptr %7, align 4, !tbaa !15
  %36 = icmp sgt i32 %34, 0
  br i1 %36, label %37, label %40

37:                                               ; preds = %33
  %38 = load i32, ptr %9, align 4, !tbaa !15
  %39 = icmp sge i32 %38, 0
  br label %40

40:                                               ; preds = %37, %33
  %41 = phi i1 [ false, %33 ], [ %39, %37 ]
  br i1 %41, label %42, label %71

42:                                               ; preds = %40
  call void @llvm.lifetime.start.p0(i64 8, ptr %10) #8
  %43 = load i32, ptr %7, align 4, !tbaa !15
  %44 = icmp sgt i32 %43, 0
  %45 = select i1 %44, ptr @.str.16, ptr @.str.17
  store ptr %45, ptr %10, align 8, !tbaa !3
  %46 = load ptr, ptr %6, align 8, !tbaa !3
  %47 = load i32, ptr %8, align 4, !tbaa !15
  %48 = sext i32 %47 to i64
  %49 = load ptr, ptr %10, align 8, !tbaa !3
  %50 = load ptr, ptr %3, align 8, !tbaa !3
  %51 = getelementptr inbounds i8, ptr %50, i64 0
  %52 = load i8, ptr %51, align 1, !tbaa !27
  %53 = zext i8 %52 to i32
  %54 = shl i32 %53, 8
  %55 = load ptr, ptr %3, align 8, !tbaa !3
  %56 = getelementptr inbounds i8, ptr %55, i64 1
  %57 = load i8, ptr %56, align 1, !tbaa !27
  %58 = zext i8 %57 to i32
  %59 = or i32 %54, %58
  %60 = call i32 (ptr, i64, ptr, ...) @BIO_snprintf(ptr noundef %46, i64 noundef %48, ptr noundef %49, i32 noundef %59)
  store i32 %60, ptr %9, align 4, !tbaa !15
  %61 = load ptr, ptr %3, align 8, !tbaa !3
  %62 = getelementptr inbounds i8, ptr %61, i64 2
  store ptr %62, ptr %3, align 8, !tbaa !3
  call void @llvm.lifetime.end.p0(i64 8, ptr %10) #8
  br label %63

63:                                               ; preds = %42
  %64 = load i32, ptr %9, align 4, !tbaa !15
  %65 = load i32, ptr %8, align 4, !tbaa !15
  %66 = sub nsw i32 %65, %64
  store i32 %66, ptr %8, align 4, !tbaa !15
  %67 = load i32, ptr %9, align 4, !tbaa !15
  %68 = load ptr, ptr %6, align 8, !tbaa !3
  %69 = sext i32 %67 to i64
  %70 = getelementptr inbounds i8, ptr %68, i64 %69
  store ptr %70, ptr %6, align 8, !tbaa !3
  br label %33, !llvm.loop !81

71:                                               ; preds = %40
  br label %76

72:                                               ; preds = %2
  %73 = getelementptr inbounds [40 x i8], ptr %5, i64 0, i64 0
  %74 = load i32, ptr %4, align 4, !tbaa !15
  %75 = call i32 (ptr, i64, ptr, ...) @BIO_snprintf(ptr noundef %73, i64 noundef 40, ptr noundef @.str.18, i32 noundef %74)
  br label %76

76:                                               ; preds = %72, %71, %12
  %77 = getelementptr inbounds [40 x i8], ptr %5, i64 0, i64 0
  %78 = call noalias ptr @CRYPTO_strdup(ptr noundef %77, ptr noundef @.str, i32 noundef 1093)
  call void @llvm.lifetime.end.p0(i64 4, ptr %9) #8
  call void @llvm.lifetime.end.p0(i64 4, ptr %8) #8
  call void @llvm.lifetime.end.p0(i64 4, ptr %7) #8
  call void @llvm.lifetime.end.p0(i64 8, ptr %6) #8
  call void @llvm.lifetime.end.p0(i64 40, ptr %5) #8
  ret ptr %78
}