; Function Attrs: nounwind uwtable
define noalias ptr @ossl_ipaddr_to_asc(ptr noundef readonly captures(none) %0, i32 noundef %1) local_unnamed_addr #0 {
  %3 = alloca [40 x i8], align 16
  call void @llvm.lifetime.start.p0(i64 40, ptr nonnull %3) #12
  switch i32 %1, label %35 [
    i32 4, label %4
    i32 16, label %.preheader
  ]

4:                                                ; preds = %2
  %5 = load i8, ptr %0, align 1, !tbaa !13
  %6 = zext i8 %5 to i32
  %7 = getelementptr inbounds nuw i8, ptr %0, i64 1
  %8 = load i8, ptr %7, align 1, !tbaa !13
  %9 = zext i8 %8 to i32
  %10 = getelementptr inbounds nuw i8, ptr %0, i64 2
  %11 = load i8, ptr %10, align 1, !tbaa !13
  %12 = zext i8 %11 to i32
  %13 = getelementptr inbounds nuw i8, ptr %0, i64 3
  %14 = load i8, ptr %13, align 1, !tbaa !13
  %15 = zext i8 %14 to i32
  %16 = call i32 (ptr, i64, ptr, ...) @BIO_snprintf(ptr noundef nonnull %3, i64 noundef 40, ptr noundef nonnull @.str.15, i32 noundef %6, i32 noundef %9, i32 noundef %12, i32 noundef %15) #12
  br label %.loopexit

.preheader:                                       ; preds = %2, %.preheader
  %.025 = phi ptr [ %29, %.preheader ], [ %0, %2 ]
  %.01924 = phi i32 [ %30, %.preheader ], [ 40, %2 ]
  %.02023 = phi i32 [ %17, %.preheader ], [ 8, %2 ]
  %.02122 = phi ptr [ %32, %.preheader ], [ %3, %2 ]
  %17 = add nsw i32 %.02023, -1
  %18 = icmp ugt i32 %.02023, 1
  %19 = select i1 %18, ptr @.str.16, ptr @.str.17
  %20 = sext i32 %.01924 to i64
  %21 = load i8, ptr %.025, align 1, !tbaa !13
  %22 = zext i8 %21 to i32
  %23 = shl nuw nsw i32 %22, 8
  %24 = getelementptr inbounds nuw i8, ptr %.025, i64 1
  %25 = load i8, ptr %24, align 1, !tbaa !13
  %26 = zext i8 %25 to i32
  %27 = or disjoint i32 %23, %26
  %28 = call i32 (ptr, i64, ptr, ...) @BIO_snprintf(ptr noundef %.02122, i64 noundef %20, ptr noundef nonnull %19, i32 noundef %27) #12
  %29 = getelementptr inbounds nuw i8, ptr %.025, i64 2
  %30 = sub nsw i32 %.01924, %28
  %31 = zext nneg i32 %28 to i64
  %32 = getelementptr inbounds nuw i8, ptr %.02122, i64 %31
  %33 = icmp sgt i32 %28, -1
  %34 = select i1 %18, i1 %33, i1 false
  br i1 %34, label %.preheader, label %.loopexit, !llvm.loop !55

35:                                               ; preds = %2
  %36 = call i32 (ptr, i64, ptr, ...) @BIO_snprintf(ptr noundef nonnull %3, i64 noundef 40, ptr noundef nonnull @.str.18, i32 noundef %1) #12
  br label %.loopexit

.loopexit:                                        ; preds = %.preheader, %35, %4
  %37 = call noalias ptr @CRYPTO_strdup(ptr noundef nonnull %3, ptr noundef nonnull @.str, i32 noundef 1093) #12
  call void @llvm.lifetime.end.p0(i64 40, ptr nonnull %3) #12
  ret ptr %37
}